target datalayout = "e-m:e-p270:32:32-p271:32:32-p272:64:64-i64:64-i128:128-f80:128-n8:16:32:64-S128"
target triple = "x86_64-pc-linux-gnu"

@ruby_version = dso_local constant [6 x i8] c"3.5.0\00", align 1
@ruby_revision = hidden constant [41 x i8] c"39960cd748e969dd2bc711a7913fe4c0b00e7fd4\00", align 16
@ruby_release_date = dso_local constant [11 x i8] c"2025-02-18\00", align 1
@ruby_platform = dso_local constant [13 x i8] c"x86_64-linux\00", align 1
@ruby_copyright = dso_local constant [50 x i8] c"ruby - Copyright (C) 1993-2025 Yukihiro Matsumoto\00", align 16
@ruby_engine = dso_local constant [5 x i8] c"ruby\00", align 1
@.str = private unnamed_addr constant [5 x i8] c"Ruby\00", align 1
@.str.1 = private unnamed_addr constant [13 x i8] c"RUBY_VERSION\00", align 1
@.str.2 = private unnamed_addr constant [8 x i8] c"VERSION\00", align 1
@.str.3 = private unnamed_addr constant [18 x i8] c"RUBY_RELEASE_DATE\00", align 1
@.str.4 = private unnamed_addr constant [13 x i8] c"RELEASE_DATE\00", align 1
@.str.5 = private unnamed_addr constant [14 x i8] c"RUBY_PLATFORM\00", align 1
@.str.6 = private unnamed_addr constant [9 x i8] c"PLATFORM\00", align 1
@.str.7 = private unnamed_addr constant [16 x i8] c"RUBY_PATCHLEVEL\00", align 1
@.str.8 = private unnamed_addr constant [11 x i8] c"PATCHLEVEL\00", align 1
@.str.9 = private unnamed_addr constant [14 x i8] c"RUBY_REVISION\00", align 1
@.str.10 = private unnamed_addr constant [9 x i8] c"REVISION\00", align 1
@.str.11 = private unnamed_addr constant [15 x i8] c"RUBY_COPYRIGHT\00", align 1
@.str.12 = private unnamed_addr constant [10 x i8] c"COPYRIGHT\00", align 1
@.str.13 = private unnamed_addr constant [12 x i8] c"RUBY_ENGINE\00", align 1
@.str.14 = private unnamed_addr constant [7 x i8] c"ENGINE\00", align 1
@.str.15 = private unnamed_addr constant [20 x i8] c"RUBY_ENGINE_VERSION\00", align 1
@.str.16 = private unnamed_addr constant [15 x i8] c"ENGINE_VERSION\00", align 1
@.str.17 = private unnamed_addr constant [18 x i8] c"ruby2_keywords.rb\00", align 1

; Function Attrs: inlinehint nounwind sspstrong uwtable
define internal void @define_ruby_const(i64 noundef %0, ptr noundef %1, i64 noundef %2, i1 noundef zeroext %3) #3 {
  %5 = alloca i64, align 8
  %6 = alloca ptr, align 8
  %7 = alloca i64, align 8
  %8 = alloca i8, align 1
  store i64 %0, ptr %5, align 8, !tbaa !7
  store ptr %1, ptr %6, align 8, !tbaa !11
  store i64 %2, ptr %7, align 8, !tbaa !7
  %9 = zext i1 %3 to i8
  store i8 %9, ptr %8, align 1, !tbaa !14
  %10 = load i8, ptr %8, align 1, !tbaa !14, !range !16, !noundef !17
  %11 = trunc i8 %10 to i1
  br i1 %11, label %12, label %17

12:                                               ; preds = %4
  %13 = load ptr, ptr %6, align 8, !tbaa !11
  %14 = load i64, ptr %7, align 8, !tbaa !7
  call void @rb_define_global_const(ptr noundef %13, i64 noundef %14)
  %15 = load ptr, ptr %6, align 8, !tbaa !11
  %16 = getelementptr i8, ptr %15, i64 5
  store ptr %16, ptr %6, align 8, !tbaa !11
  br label %17

17:                                               ; preds = %12, %4
  %18 = load i64, ptr %5, align 8, !tbaa !7
  %19 = load ptr, ptr %6, align 8, !tbaa !11
  %20 = load i64, ptr %7, align 8, !tbaa !7
  call void @rb_define_const(i64 noundef %18, ptr noundef %19, i64 noundef %20)
  ret void
}

; Function Attrs: nounwind sspstrong uwtable
define hidden void @Init_version() #0 {
  %1 = alloca i64, align 8
  %2 = alloca i64, align 8
  %3 = alloca i64, align 8
  call void @llvm.lifetime.start.p0(i64 8, ptr %1) #10
  %4 = call i64 @rb_define_module(ptr noundef @.str)
  store i64 %4, ptr %1, align 8, !tbaa !7
  call void @llvm.lifetime.start.p0(i64 8, ptr %2) #10
  %5 = call i64 @rb_usascii_str_new_static(ptr noundef @ruby_version, i64 noundef 5)
  %6 = call i64 @rb_obj_freeze(i64 noundef %5)
  store i64 %6, ptr %2, align 8, !tbaa !7
  call void @llvm.lifetime.start.p0(i64 8, ptr %3) #10
  %7 = call i64 @rb_usascii_str_new_static(ptr noundef @ruby_engine, i64 noundef 4)
  %8 = call i64 @rb_obj_freeze(i64 noundef %7)
  store i64 %8, ptr %3, align 8, !tbaa !7
  %9 = load i64, ptr %1, align 8, !tbaa !7
  %10 = load i64, ptr %1, align 8, !tbaa !7
  %11 = load i64, ptr %1, align 8, !tbaa !7
  %12 = icmp eq i64 %10, %11
  %13 = select i1 %12, ptr @.str.1, ptr @.str.2
  %14 = load i64, ptr %2, align 8, !tbaa !7
  %15 = load i64, ptr %1, align 8, !tbaa !7
  %16 = load i64, ptr %1, align 8, !tbaa !7
  %17 = icmp eq i64 %15, %16
  call void @define_ruby_const(i64 noundef %9, ptr noundef %13, i64 noundef %14, i1 noundef zeroext %17)
  %18 = load i64, ptr %1, align 8, !tbaa !7
  %19 = load i64, ptr %1, align 8, !tbaa !7
  %20 = load i64, ptr %1, align 8, !tbaa !7
  %21 = icmp eq i64 %19, %20
  %22 = select i1 %21, ptr @.str.3, ptr @.str.4
  %23 = call i64 @rb_usascii_str_new_static(ptr noundef @ruby_release_date, i64 noundef 10)
  %24 = call i64 @rb_obj_freeze(i64 noundef %23)
  %25 = load i64, ptr %1, align 8, !tbaa !7
  %26 = load i64, ptr %1, align 8, !tbaa !7
  %27 = icmp eq i64 %25, %26
  call void @define_ruby_const(i64 noundef %18, ptr noundef %22, i64 noundef %24, i1 noundef zeroext %27)
  %28 = load i64, ptr %1, align 8, !tbaa !7
  %29 = load i64, ptr %1, align 8, !tbaa !7
  %30 = load i64, ptr %1, align 8, !tbaa !7
  %31 = icmp eq i64 %29, %30
  %32 = select i1 %31, ptr @.str.5, ptr @.str.6
  %33 = call i64 @rb_usascii_str_new_static(ptr noundef @ruby_platform, i64 noundef 12)
  %34 = call i64 @rb_obj_freeze(i64 noundef %33)
  %35 = load i64, ptr %1, align 8, !tbaa !7
  %36 = load i64, ptr %1, align 8, !tbaa !7
  %37 = icmp eq i64 %35, %36
  call void @define_ruby_const(i64 noundef %28, ptr noundef %32, i64 noundef %34, i1 noundef zeroext %37)
  %38 = load i64, ptr %1, align 8, !tbaa !7
  %39 = load i64, ptr %1, align 8, !tbaa !7
  %40 = load i64, ptr %1, align 8, !tbaa !7
  %41 = icmp eq i64 %39, %40
  %42 = select i1 %41, ptr @.str.7, ptr @.str.8
  %43 = load i64, ptr %1, align 8, !tbaa !7
  %44 = load i64, ptr %1, align 8, !tbaa !7
  %45 = icmp eq i64 %43, %44
  call void @define_ruby_const(i64 noundef %38, ptr noundef %42, i64 noundef -1, i1 noundef zeroext %45)
  %46 = load i64, ptr %1, align 8, !tbaa !7
  %47 = load i64, ptr %1, align 8, !tbaa !7
  %48 = load i64, ptr %1, align 8, !tbaa !7
  %49 = icmp eq i64 %47, %48
  %50 = select i1 %49, ptr @.str.9, ptr @.str.10
  %51 = call i64 @rb_usascii_str_new_static(ptr noundef @ruby_revision, i64 noundef 40)
  %52 = call i64 @rb_obj_freeze(i64 noundef %51)
  %53 = load i64, ptr %1, align 8, !tbaa !7
  %54 = load i64, ptr %1, align 8, !tbaa !7
  %55 = icmp eq i64 %53, %54
  call void @define_ruby_const(i64 noundef %46, ptr noundef %50, i64 noundef %52, i1 noundef zeroext %55)
  %56 = load i64, ptr %1, align 8, !tbaa !7
  %57 = load i64, ptr %1, align 8, !tbaa !7
  %58 = load i64, ptr %1, align 8, !tbaa !7
  %59 = icmp eq i64 %57, %58
  %60 = select i1 %59, ptr @.str.11, ptr @.str.12
  %61 = call i64 @rb_usascii_str_new_static(ptr noundef @ruby_copyright, i64 noundef 49)
  %62 = call i64 @rb_obj_freeze(i64 noundef %61)
  %63 = load i64, ptr %1, align 8, !tbaa !7
  %64 = load i64, ptr %1, align 8, !tbaa !7
  %65 = icmp eq i64 %63, %64
  call void @define_ruby_const(i64 noundef %56, ptr noundef %60, i64 noundef %62, i1 noundef zeroext %65)
  %66 = load i64, ptr %1, align 8, !tbaa !7
  %67 = load i64, ptr %1, align 8, !tbaa !7
  %68 = load i64, ptr %1, align 8, !tbaa !7
  %69 = icmp eq i64 %67, %68
  %70 = select i1 %69, ptr @.str.13, ptr @.str.14
  %71 = load i64, ptr %3, align 8, !tbaa !7
  %72 = load i64, ptr %1, align 8, !tbaa !7
  %73 = load i64, ptr %1, align 8, !tbaa !7
  %74 = icmp eq i64 %72, %73
  call void @define_ruby_const(i64 noundef %66, ptr noundef %70, i64 noundef %71, i1 noundef zeroext %74)
  %75 = load i64, ptr %3, align 8, !tbaa !7
  call void @ruby_set_script_name(i64 noundef %75)
  %76 = load i64, ptr %1, align 8, !tbaa !7
  %77 = load i64, ptr %1, align 8, !tbaa !7
  %78 = load i64, ptr %1, align 8, !tbaa !7
  %79 = icmp eq i64 %77, %78
  %80 = select i1 %79, ptr @.str.15, ptr @.str.16
  %81 = load i64, ptr %2, align 8, !tbaa !7
  %82 = load i64, ptr %1, align 8, !tbaa !7
  %83 = load i64, ptr %1, align 8, !tbaa !7
  %84 = icmp eq i64 %82, %83
  call void @define_ruby_const(i64 noundef %76, ptr noundef %80, i64 noundef %81, i1 noundef zeroext %84)
  call void @rb_provide(ptr noundef @.str.17)
  call void @llvm.lifetime.end.p0(i64 8, ptr %3) #10
  call void @llvm.lifetime.end.p0(i64 8, ptr %2) #10
  call void @llvm.lifetime.end.p0(i64 8, ptr %1) #10
  ret void
}