; Function Attrs: nounwind sspstrong uwtable
define hidden void @Init_version() local_unnamed_addr #0 {
  %1 = tail call i64 @rb_define_module(ptr noundef nonnull @.str) #8
  %2 = tail call i64 @rb_usascii_str_new_static(ptr noundef nonnull @ruby_version, i64 noundef 5) #8
  %3 = tail call i64 @rb_obj_freeze(i64 noundef %2) #8
  %4 = tail call i64 @rb_usascii_str_new_static(ptr noundef nonnull @ruby_engine, i64 noundef 4) #8
  %5 = tail call i64 @rb_obj_freeze(i64 noundef %4) #8
  tail call void @rb_define_global_const(ptr noundef nonnull @.str.1, i64 noundef %3) #8
  tail call void @rb_define_const(i64 noundef %1, ptr noundef nonnull getelementptr inbounds nuw (i8, ptr @.str.1, i64 5), i64 noundef %3) #8
  %6 = tail call i64 @rb_usascii_str_new_static(ptr noundef nonnull @ruby_release_date, i64 noundef 10) #8
  %7 = tail call i64 @rb_obj_freeze(i64 noundef %6) #8
  tail call void @rb_define_global_const(ptr noundef nonnull @.str.3, i64 noundef %7) #8
  tail call void @rb_define_const(i64 noundef %1, ptr noundef nonnull getelementptr inbounds nuw (i8, ptr @.str.3, i64 5), i64 noundef %7) #8
  %8 = tail call i64 @rb_usascii_str_new_static(ptr noundef nonnull @ruby_platform, i64 noundef 12) #8
  %9 = tail call i64 @rb_obj_freeze(i64 noundef %8) #8
  tail call void @rb_define_global_const(ptr noundef nonnull @.str.5, i64 noundef %9) #8
  tail call void @rb_define_const(i64 noundef %1, ptr noundef nonnull getelementptr inbounds nuw (i8, ptr @.str.5, i64 5), i64 noundef %9) #8
  tail call void @rb_define_global_const(ptr noundef nonnull @.str.7, i64 noundef -1) #8
  tail call void @rb_define_const(i64 noundef %1, ptr noundef nonnull getelementptr inbounds nuw (i8, ptr @.str.7, i64 5), i64 noundef -1) #8
  %10 = tail call i64 @rb_usascii_str_new_static(ptr noundef nonnull @ruby_revision, i64 noundef 40) #8
  %11 = tail call i64 @rb_obj_freeze(i64 noundef %10) #8
  tail call void @rb_define_global_const(ptr noundef nonnull @.str.9, i64 noundef %11) #8
  tail call void @rb_define_const(i64 noundef %1, ptr noundef nonnull getelementptr inbounds nuw (i8, ptr @.str.9, i64 5), i64 noundef %11) #8
  %12 = tail call i64 @rb_usascii_str_new_static(ptr noundef nonnull @ruby_copyright, i64 noundef 49) #8
  %13 = tail call i64 @rb_obj_freeze(i64 noundef %12) #8
  tail call void @rb_define_global_const(ptr noundef nonnull @.str.11, i64 noundef %13) #8
  tail call void @rb_define_const(i64 noundef %1, ptr noundef nonnull getelementptr inbounds nuw (i8, ptr @.str.11, i64 5), i64 noundef %13) #8
  tail call void @rb_define_global_const(ptr noundef nonnull @.str.13, i64 noundef %5) #8
  tail call void @rb_define_const(i64 noundef %1, ptr noundef nonnull getelementptr inbounds nuw (i8, ptr @.str.13, i64 5), i64 noundef %5) #8
  tail call void @ruby_set_script_name(i64 noundef %5) #8
  tail call void @rb_define_global_const(ptr noundef nonnull @.str.15, i64 noundef %3) #8
  tail call void @rb_define_const(i64 noundef %1, ptr noundef nonnull getelementptr inbounds nuw (i8, ptr @.str.15, i64 5), i64 noundef %3) #8
  tail call void @rb_provide(ptr noundef nonnull @.str.17) #8
  ret void
}